; Function Attrs: mustprogress uwtable
define noundef zeroext i1 @_ZN17EditMeasurePlugin9startEditER9MeshModelP6GLAreaP26MLSceneGLSharedDataContext(ptr noundef nonnull align 8 dereferenceable(192) %0, ptr nocapture nonnull readnone align 8 %1, ptr noundef %2, ptr nocapture readnone %3) unnamed_addr #9 align 2 personality ptr @__gxx_personality_v0 {
  %5 = alloca %class.QCursor, align 8
  %6 = alloca %class.QPixmap, align 8
  %7 = alloca %class.QString, align 8
  %8 = alloca %"class.QMetaObject::Connection", align 8
  %9 = tail call noundef ptr @_ZN7QString16fromAscii_helperEPKci(ptr noundef nonnull @.str.34, i32 noundef 24)
  store ptr %9, ptr %7, align 8
  invoke void @_ZN7QPixmapC1ERK7QStringPKc6QFlagsIN2Qt19ImageConversionFlagEE(ptr noundef nonnull align 8 dereferenceable(32) %6, ptr noundef nonnull align 8 dereferenceable(8) %7, ptr noundef null, i32 0)
          to label %10 unwind label %28

10:                                               ; preds = %4
  invoke void @_ZN7QCursorC1ERK7QPixmapii(ptr noundef nonnull align 8 dereferenceable(8) %5, ptr noundef nonnull align 8 dereferenceable(32) %6, i32 noundef 15, i32 noundef 15)
          to label %11 unwind label %30

11:                                               ; preds = %10
  invoke void @_ZN7QWidget9setCursorERK7QCursor(ptr noundef nonnull align 8 dereferenceable(48) %2, ptr noundef nonnull align 8 dereferenceable(8) %5)
          to label %12 unwind label %32

12:                                               ; preds = %11
  call void @_ZN7QCursorD1Ev(ptr noundef nonnull align 8 dereferenceable(8) %5) #20
  call void @_ZN7QPixmapD1Ev(ptr noundef nonnull align 8 dereferenceable(32) %6) #20
  %13 = load ptr, ptr %7, align 8
  %14 = load atomic i32, ptr %13 monotonic, align 4
  switch i32 %14, label %_ZN9QtPrivate8RefCount5derefEv.exit.i [
    i32 0, label %_ZN9QtPrivate8RefCount5derefEv.exit.thread2.i
    i32 -1, label %_ZN7QStringD2Ev.exit
  ]

_ZN9QtPrivate8RefCount5derefEv.exit.i:            ; preds = %12
  %15 = atomicrmw sub ptr %13, i32 1 seq_cst, align 4
  %.not.i = icmp eq i32 %15, 1
  br i1 %.not.i, label %_ZN9QtPrivate8RefCount5derefEv.exit._ZN9QtPrivate8RefCount5derefEv.exit.thread2_crit_edge.i, label %_ZN7QStringD2Ev.exit

_ZN9QtPrivate8RefCount5derefEv.exit._ZN9QtPrivate8RefCount5derefEv.exit.thread2_crit_edge.i: ; preds = %_ZN9QtPrivate8RefCount5derefEv.exit.i
  %.pre.i = load ptr, ptr %7, align 8
  br label %_ZN9QtPrivate8RefCount5derefEv.exit.thread2.i

_ZN9QtPrivate8RefCount5derefEv.exit.thread2.i:    ; preds = %_ZN9QtPrivate8RefCount5derefEv.exit._ZN9QtPrivate8RefCount5derefEv.exit.thread2_crit_edge.i, %12
  %16 = phi ptr [ %.pre.i, %_ZN9QtPrivate8RefCount5derefEv.exit._ZN9QtPrivate8RefCount5derefEv.exit.thread2_crit_edge.i ], [ %13, %12 ]
  call void @_ZN10QArrayData10deallocateEPS_mm(ptr noundef %16, i64 noundef 2, i64 noundef 8) #20
  br label %_ZN7QStringD2Ev.exit

_ZN7QStringD2Ev.exit:                             ; preds = %12, %_ZN9QtPrivate8RefCount5derefEv.exit.i, %_ZN9QtPrivate8RefCount5derefEv.exit.thread2.i
  call void @_ZN7QObject7connectEPKS_PKcS1_S3_N2Qt14ConnectionTypeE(ptr dead_on_unwind nonnull writable sret(%"class.QMetaObject::Connection") align 8 %8, ptr noundef nonnull %0, ptr noundef nonnull @.str.35, ptr noundef nonnull %2, ptr noundef nonnull @.str.36, i32 noundef 0)
  call void @_ZN11QMetaObject10ConnectionD1Ev(ptr noundef nonnull align 8 dereferenceable(8) %8) #20
  %17 = getelementptr inbounds i8, ptr %0, i64 168
  %18 = load ptr, ptr %17, align 8
  %19 = getelementptr inbounds i8, ptr %0, i64 176
  %20 = load ptr, ptr %19, align 8
  %.not.i.i = icmp eq ptr %20, %18
  br i1 %.not.i.i, label %_ZNSt6vectorI7measureSaIS0_EE5clearEv.exit, label %.lr.ph.i.i.i.i.i

.lr.ph.i.i.i.i.i:                                 ; preds = %_ZN7QStringD2Ev.exit, %_ZSt8_DestroyI7measureEvPT_.exit.i.i.i.i.i
  %.05.i.i.i.i.i = phi ptr [ %25, %_ZSt8_DestroyI7measureEvPT_.exit.i.i.i.i.i ], [ %18, %_ZN7QStringD2Ev.exit ]
  %21 = load ptr, ptr %.05.i.i.i.i.i, align 8
  %22 = load atomic i32, ptr %21 monotonic, align 4
  switch i32 %22, label %_ZN9QtPrivate8RefCount5derefEv.exit.i.i.i.i.i.i.i.i [
    i32 0, label %_ZN9QtPrivate8RefCount5derefEv.exit.thread2.i.i.i.i.i.i.i.i
    i32 -1, label %_ZSt8_DestroyI7measureEvPT_.exit.i.i.i.i.i
  ]

_ZN9QtPrivate8RefCount5derefEv.exit.i.i.i.i.i.i.i.i: ; preds = %.lr.ph.i.i.i.i.i
  %23 = atomicrmw sub ptr %21, i32 1 seq_cst, align 4
  %.not.i.i.i.i.i.i.i.i = icmp eq i32 %23, 1
  br i1 %.not.i.i.i.i.i.i.i.i, label %_ZN9QtPrivate8RefCount5derefEv.exit._ZN9QtPrivate8RefCount5derefEv.exit.thread2_crit_edge.i.i.i.i.i.i.i.i, label %_ZSt8_DestroyI7measureEvPT_.exit.i.i.i.i.i

_ZN9QtPrivate8RefCount5derefEv.exit._ZN9QtPrivate8RefCount5derefEv.exit.thread2_crit_edge.i.i.i.i.i.i.i.i: ; preds = %_ZN9QtPrivate8RefCount5derefEv.exit.i.i.i.i.i.i.i.i
  %.pre.i.i.i.i.i.i.i.i = load ptr, ptr %.05.i.i.i.i.i, align 8
  br label %_ZN9QtPrivate8RefCount5derefEv.exit.thread2.i.i.i.i.i.i.i.i

_ZN9QtPrivate8RefCount5derefEv.exit.thread2.i.i.i.i.i.i.i.i: ; preds = %_ZN9QtPrivate8RefCount5derefEv.exit._ZN9QtPrivate8RefCount5derefEv.exit.thread2_crit_edge.i.i.i.i.i.i.i.i, %.lr.ph.i.i.i.i.i
  %24 = phi ptr [ %.pre.i.i.i.i.i.i.i.i, %_ZN9QtPrivate8RefCount5derefEv.exit._ZN9QtPrivate8RefCount5derefEv.exit.thread2_crit_edge.i.i.i.i.i.i.i.i ], [ %21, %.lr.ph.i.i.i.i.i ]
  call void @_ZN10QArrayData10deallocateEPS_mm(ptr noundef %24, i64 noundef 2, i64 noundef 8) #20
  br label %_ZSt8_DestroyI7measureEvPT_.exit.i.i.i.i.i

_ZSt8_DestroyI7measureEvPT_.exit.i.i.i.i.i:       ; preds = %_ZN9QtPrivate8RefCount5derefEv.exit.thread2.i.i.i.i.i.i.i.i, %_ZN9QtPrivate8RefCount5derefEv.exit.i.i.i.i.i.i.i.i, %.lr.ph.i.i.i.i.i
  %25 = getelementptr inbounds i8, ptr %.05.i.i.i.i.i, i64 40
  %.not.i.i.i.i.i = icmp eq ptr %25, %20
  br i1 %.not.i.i.i.i.i, label %_ZSt8_DestroyIP7measureS0_EvT_S2_RSaIT0_E.exit.i.i, label %.lr.ph.i.i.i.i.i, !llvm.loop !37

_ZSt8_DestroyIP7measureS0_EvT_S2_RSaIT0_E.exit.i.i: ; preds = %_ZSt8_DestroyI7measureEvPT_.exit.i.i.i.i.i
  store ptr %18, ptr %19, align 8
  br label %_ZNSt6vectorI7measureSaIS0_EE5clearEv.exit

_ZNSt6vectorI7measureSaIS0_EE5clearEv.exit:       ; preds = %_ZN7QStringD2Ev.exit, %_ZSt8_DestroyIP7measureS0_EvT_S2_RSaIT0_E.exit.i.i
  %26 = getelementptr inbounds i8, ptr %0, i64 164
  store i32 0, ptr %26, align 4
  %27 = getelementptr inbounds i8, ptr %0, i64 48
  call void @_ZN3vcg10Rubberband5ResetEv(ptr noundef nonnull align 8 dereferenceable(49) %27)
  ret i1 true

28:                                               ; preds = %4
  %29 = landingpad { ptr, i32 }
          cleanup
  br label %35

30:                                               ; preds = %10
  %31 = landingpad { ptr, i32 }
          cleanup
  br label %34

32:                                               ; preds = %11
  %33 = landingpad { ptr, i32 }
          cleanup
  call void @_ZN7QCursorD1Ev(ptr noundef nonnull align 8 dereferenceable(8) %5) #20
  br label %34

34:                                               ; preds = %32, %30
  %.pn = phi { ptr, i32 } [ %33, %32 ], [ %31, %30 ]
  call void @_ZN7QPixmapD1Ev(ptr noundef nonnull align 8 dereferenceable(32) %6) #20
  br label %35

35:                                               ; preds = %34, %28
  %.pn.pn = phi { ptr, i32 } [ %.pn, %34 ], [ %29, %28 ]
  call void @_ZN7QStringD2Ev(ptr noundef nonnull align 8 dereferenceable(8) %7) #20
  resume { ptr, i32 } %.pn.pn
}